   1              		.file	"dl_core.c"
   2              		.text
   3              	.Ltext0:
   4              		.section	.rodata
   5              		.align 16
   8              	long_min_digits:
   9 0000 39323233 		.string	"9223372036854775808"
   9      33373230 
   9      33363835 
   9      34373735 
   9      38303800 
  10              	.LC0:
  11 0014 646C5F63 		.string	"dl_core"
  11      6F726500 
  12              	.LC1:
  13 001c 646C5F61 		.string	"dl_array"
  13      72726179 
  13      00
  14              		.section	.data.rel,"aw",@progbits
  15              		.align 64
  18              	dl_core_functions:
  19 0000 00000000 		.quad	.LC0
  19      00000000 
  20 0008 00000000 		.quad	zif_dl_core
  20      00000000 
  21 0010 00000000 		.quad	0
  21      00000000 
  22 0018 FFFFFFFF 		.long	-1
  23 001c 00000000 		.long	0
  24 0020 00000000 		.quad	.LC1
  24      00000000 
  25 0028 00000000 		.quad	zif_dl_array
  25      00000000 
  26 0030 00000000 		.quad	0
  26      00000000 
  27 0038 FFFFFFFF 		.long	-1
  28 003c 00000000 		.long	0
  29 0040 00000000 		.quad	0
  29      00000000 
  30 0048 00000000 		.quad	0
  30      00000000 
  31 0050 00000000 		.quad	0
  31      00000000 
  32 0058 00000000 		.zero	8
  32      00000000 
  33              		.globl	dl_core_module_entry
  34              		.section	.rodata
  35              	.LC2:
  36 0025 302E3100 		.string	"0.1"
  37              	.LC3:
  38 0029 41504932 		.string	"API20131226,NTS,debug"
  38      30313331 
  38      3232362C 
  38      4E54532C 
  38      64656275 
  39              		.section	.data.rel.local,"aw",@progbits
  40              		.align 64
  43              	dl_core_module_entry:
  45 0002 0000     		.zero	2
  46 0004 9A2D3301 		.long	20131226
  47 0008 01       		.byte	1
  48 0009 00       		.byte	0
  49 000a 00000000 		.zero	6
  49      0000
  50 0010 00000000 		.quad	0
  50      00000000 
  51 0018 00000000 		.quad	0
  51      00000000 
  52 0020 00000000 		.quad	.LC0
  52      00000000 
  53 0028 00000000 		.quad	dl_core_functions
  53      00000000 
  54 0030 00000000 		.quad	0
  54      00000000 
  55 0038 00000000 		.quad	0
  55      00000000 
  56 0040 00000000 		.quad	0
  56      00000000 
  57 0048 00000000 		.quad	0
  57      00000000 
  58 0050 00000000 		.quad	0
  58      00000000 
  59 0058 00000000 		.quad	.LC2
  59      00000000 
  60 0060 00000000 		.quad	0
  60      00000000 
  61 0068 00000000 		.quad	0
  61      00000000 
  62 0070 00000000 		.quad	0
  62      00000000 
  63 0078 00000000 		.quad	0
  63      00000000 
  64 0080 00000000 		.quad	0
  64      00000000 
  65 0088 00000000 		.long	0
  66 008c 00       		.byte	0
  67 008d 000000   		.zero	3
  68 0090 00000000 		.quad	0
  68      00000000 
  69 0098 00000000 		.long	0
  70 009c 00000000 		.zero	4
  71 00a0 00000000 		.quad	.LC3
  71      00000000 
  72              		.text
  73              		.globl	get_module
  75              	get_module:
  76              	.LFB69:
  77              		.file 1 "/home/dl_core/include/dl_core.h"
   1:/home/dl_core/include/dl_core.h **** /* 
   2:/home/dl_core/include/dl_core.h ****  * File:   dl_core.h
   3:/home/dl_core/include/dl_core.h ****  * Author: sync1983
   4:/home/dl_core/include/dl_core.h ****  *
   5:/home/dl_core/include/dl_core.h ****  * Created on 28 –æ–∫—Ç—è–±—Ä—è 2015 –≥., 13:28
   6:/home/dl_core/include/dl_core.h ****  */
   7:/home/dl_core/include/dl_core.h **** 
   8:/home/dl_core/include/dl_core.h **** #ifndef DL_CORE_H
   9:/home/dl_core/include/dl_core.h **** #define DL_CORE_H
  10:/home/dl_core/include/dl_core.h **** 
  11:/home/dl_core/include/dl_core.h **** #ifdef ZTS
  12:/home/dl_core/include/dl_core.h ****   #include "TSRM.h"
  13:/home/dl_core/include/dl_core.h **** #endif
  14:/home/dl_core/include/dl_core.h **** 
  15:/home/dl_core/include/dl_core.h **** #define PHP_DL_CORE_VERSION "0.1"
  16:/home/dl_core/include/dl_core.h **** 
  17:/home/dl_core/include/dl_core.h **** PHP_FUNCTION(dl_core);
  18:/home/dl_core/include/dl_core.h **** PHP_FUNCTION(dl_array);
  19:/home/dl_core/include/dl_core.h **** 
  20:/home/dl_core/include/dl_core.h **** #define MIN(a,b) (((a)<(b))?(a):(b))
  21:/home/dl_core/include/dl_core.h **** #define MAX(a,b) (((a)>(b))?(a):(b))
  22:/home/dl_core/include/dl_core.h **** 
  23:/home/dl_core/include/dl_core.h **** #define foreach_start(array,key,data,pointer)   \
  24:/home/dl_core/include/dl_core.h ****   HashPosition  pointer;                        \
  25:/home/dl_core/include/dl_core.h ****   zval   *key, **data;                           \
  26:/home/dl_core/include/dl_core.h ****   zend_hash_internal_pointer_reset_ex(          \
  27:/home/dl_core/include/dl_core.h ****     (array),                                    \
  28:/home/dl_core/include/dl_core.h ****     &pointer);                                  \
  29:/home/dl_core/include/dl_core.h ****   while ( zend_hash_get_current_data_ex(        \
  30:/home/dl_core/include/dl_core.h ****               (array ),                         \
  31:/home/dl_core/include/dl_core.h ****               (void **)&data,                   \
  32:/home/dl_core/include/dl_core.h ****               &pointer                          \
  33:/home/dl_core/include/dl_core.h ****             ) == SUCCESS) {                    
  34:/home/dl_core/include/dl_core.h ****     
  35:/home/dl_core/include/dl_core.h **** #define foreach_continue(array,pointer)         \
  36:/home/dl_core/include/dl_core.h ****   zend_hash_move_forward_ex(        \
  37:/home/dl_core/include/dl_core.h ****     (array),                        \
  38:/home/dl_core/include/dl_core.h ****     &pointer);                      \
  39:/home/dl_core/include/dl_core.h ****     continue;
  40:/home/dl_core/include/dl_core.h **** 
  41:/home/dl_core/include/dl_core.h **** #define foreach_end(array, pointer) \
  42:/home/dl_core/include/dl_core.h ****   zend_hash_move_forward_ex(        \
  43:/home/dl_core/include/dl_core.h ****     (array),                        \
  44:/home/dl_core/include/dl_core.h ****     &pointer);                      \
  45:/home/dl_core/include/dl_core.h ****   }
  46:/home/dl_core/include/dl_core.h **** 
  47:/home/dl_core/include/dl_core.h **** 
  48:/home/dl_core/include/dl_core.h **** static zend_function_entry dl_core_functions[] = {
  49:/home/dl_core/include/dl_core.h ****     PHP_FE(dl_core, NULL)
  50:/home/dl_core/include/dl_core.h ****     PHP_FE(dl_array, NULL)    
  51:/home/dl_core/include/dl_core.h ****     {NULL, NULL, NULL}
  52:/home/dl_core/include/dl_core.h **** };
  53:/home/dl_core/include/dl_core.h **** 
  54:/home/dl_core/include/dl_core.h **** zend_module_entry dl_core_module_entry = {
  55:/home/dl_core/include/dl_core.h ****     STANDARD_MODULE_HEADER,
  56:/home/dl_core/include/dl_core.h ****     "dl_core",
  57:/home/dl_core/include/dl_core.h ****     dl_core_functions,
  58:/home/dl_core/include/dl_core.h ****     NULL,                     //PHP_MINIT(dl_core),
  59:/home/dl_core/include/dl_core.h ****     NULL,                     //PHP_MSHUTDOWN(dl_core),
  60:/home/dl_core/include/dl_core.h ****     NULL,                     //PHP_RINIT(dl_core),
  61:/home/dl_core/include/dl_core.h ****     NULL,
  62:/home/dl_core/include/dl_core.h ****     NULL,
  63:/home/dl_core/include/dl_core.h ****     PHP_DL_CORE_VERSION,
  64:/home/dl_core/include/dl_core.h ****     STANDARD_MODULE_PROPERTIES
  65:/home/dl_core/include/dl_core.h **** };
  66:/home/dl_core/include/dl_core.h **** 
  67:/home/dl_core/include/dl_core.h **** ZEND_GET_MODULE(dl_core)
  78              		.loc 1 67 0
  79              		.cfi_startproc
  80 0000 55       		pushq	%rbp
  81              		.cfi_def_cfa_offset 16
  82              		.cfi_offset 6, -16
  83 0001 4889E5   		movq	%rsp, %rbp
  84              		.cfi_def_cfa_register 6
  85              		.loc 1 67 0
  86 0004 488B0500 		movq	dl_core_module_entry@GOTPCREL(%rip), %rax
  86      000000
  87 000b 5D       		popq	%rbp
  88              		.cfi_def_cfa 7, 8
  89 000c C3       		ret
  90              		.cfi_endproc
  91              	.LFE69:
  93              		.globl	dl_core_core
  95              	dl_core_core:
  96              	.LFB70:
  97              		.file 2 "/home/dl_core/dl_core.c"
   1:/home/dl_core/dl_core.c **** #ifdef HAVE_CONFIG_H
   2:/home/dl_core/dl_core.c **** #include "config.h"
   3:/home/dl_core/dl_core.c **** #endif
   4:/home/dl_core/dl_core.c **** 
   5:/home/dl_core/dl_core.c **** #include "php.h"
   6:/home/dl_core/dl_core.c **** #include "zend.h"
   7:/home/dl_core/dl_core.c **** #include "zend_hash.h"
   8:/home/dl_core/dl_core.c **** #include "include/dl_core.h"
   9:/home/dl_core/dl_core.c **** 
  10:/home/dl_core/dl_core.c **** long dl_core_core(char *S1, char *S2, int N, int M)
  11:/home/dl_core/dl_core.c **** {
  98              		.loc 2 11 0
  99              		.cfi_startproc
 100 000d 55       		pushq	%rbp
 101              		.cfi_def_cfa_offset 16
 102              		.cfi_offset 6, -16
 103 000e 4889E5   		movq	%rsp, %rbp
 104              		.cfi_def_cfa_register 6
 105 0011 4883EC40 		subq	$64, %rsp
 106 0015 48897DD8 		movq	%rdi, -40(%rbp)
 107 0019 488975D0 		movq	%rsi, -48(%rbp)
 108 001d 8955CC   		movl	%edx, -52(%rbp)
 109 0020 894DC8   		movl	%ecx, -56(%rbp)
  12:/home/dl_core/dl_core.c ****   int D1 = 0, D2 = 0, D3 = 0, D4 = 0,distance = 0;
 110              		.loc 2 12 0
 111 0023 C745F000 		movl	$0, -16(%rbp)
 111      000000
 112 002a C745F400 		movl	$0, -12(%rbp)
 112      000000
 113 0031 C745EC00 		movl	$0, -20(%rbp)
 113      000000
 114 0038 C745F800 		movl	$0, -8(%rbp)
 114      000000
 115 003f C745FC00 		movl	$0, -4(%rbp)
 115      000000
  13:/home/dl_core/dl_core.c ****   
  14:/home/dl_core/dl_core.c ****   if( MIN(N,M) <= 0 ){
 116              		.loc 2 14 0
 117 0046 8B45CC   		movl	-52(%rbp), %eax
 118 0049 3945C8   		cmpl	%eax, -56(%rbp)
 119 004c 0F4E45C8 		cmovle	-56(%rbp), %eax
 120 0050 85C0     		testl	%eax, %eax
 121 0052 7F11     		jg	.L4
  15:/home/dl_core/dl_core.c ****     return MAX(N,M);    
 122              		.loc 2 15 0
 123 0054 8B45CC   		movl	-52(%rbp), %eax
 124 0057 3945C8   		cmpl	%eax, -56(%rbp)
 125 005a 0F4D45C8 		cmovge	-56(%rbp), %eax
 126 005e 4898     		cltq
 127 0060 E9D40100 		jmp	.L5
 127      00
 128              	.L4:
  16:/home/dl_core/dl_core.c ****   }
  17:/home/dl_core/dl_core.c ****       
  18:/home/dl_core/dl_core.c ****   char AN = S1[N-1];
 129              		.loc 2 18 0
 130 0065 8B45CC   		movl	-52(%rbp), %eax
 131 0068 4898     		cltq
 132 006a 488D50FF 		leaq	-1(%rax), %rdx
 133 006e 488B45D8 		movq	-40(%rbp), %rax
 134 0072 4801D0   		addq	%rdx, %rax
 135 0075 0FB600   		movzbl	(%rax), %eax
 136 0078 8845E8   		movb	%al, -24(%rbp)
  19:/home/dl_core/dl_core.c ****   char BM = S2[M-1];
 137              		.loc 2 19 0
 138 007b 8B45C8   		movl	-56(%rbp), %eax
 139 007e 4898     		cltq
 140 0080 488D50FF 		leaq	-1(%rax), %rdx
 141 0084 488B45D0 		movq	-48(%rbp), %rax
 142 0088 4801D0   		addq	%rdx, %rax
 143 008b 0FB600   		movzbl	(%rax), %eax
 144 008e 8845E9   		movb	%al, -23(%rbp)
  20:/home/dl_core/dl_core.c ****         
  21:/home/dl_core/dl_core.c ****   if( (N > 2) && (M > 2) ){
 145              		.loc 2 21 0
 146 0091 837DCC02 		cmpl	$2, -52(%rbp)
 147 0095 0F8E1101 		jle	.L6
 147      0000
 148              		.loc 2 21 0 is_stmt 0 discriminator 1
 149 009b 837DC802 		cmpl	$2, -56(%rbp)
 150 009f 0F8E0701 		jle	.L6
 150      0000
 151              	.LBB2:
  22:/home/dl_core/dl_core.c ****                
  23:/home/dl_core/dl_core.c ****     char AN1 = S1[N-2];
 152              		.loc 2 23 0 is_stmt 1
 153 00a5 8B45CC   		movl	-52(%rbp), %eax
 154 00a8 4898     		cltq
 155 00aa 488D50FE 		leaq	-2(%rax), %rdx
 156 00ae 488B45D8 		movq	-40(%rbp), %rax
 157 00b2 4801D0   		addq	%rdx, %rax
 158 00b5 0FB600   		movzbl	(%rax), %eax
 159 00b8 8845EA   		movb	%al, -22(%rbp)
  24:/home/dl_core/dl_core.c ****     char BM1 = S2[M-2];
 160              		.loc 2 24 0
 161 00bb 8B45C8   		movl	-56(%rbp), %eax
 162 00be 4898     		cltq
 163 00c0 488D50FE 		leaq	-2(%rax), %rdx
 164 00c4 488B45D0 		movq	-48(%rbp), %rax
 165 00c8 4801D0   		addq	%rdx, %rax
 166 00cb 0FB600   		movzbl	(%rax), %eax
 167 00ce 8845EB   		movb	%al, -21(%rbp)
  25:/home/dl_core/dl_core.c ****                         
  26:/home/dl_core/dl_core.c ****     if( (AN == BM1) && (AN1 == BM) ){
 168              		.loc 2 26 0
 169 00d1 0FB645E8 		movzbl	-24(%rbp), %eax
 170 00d5 3A45EB   		cmpb	-21(%rbp), %al
 171 00d8 0F85CE00 		jne	.L6
 171      0000
 172              		.loc 2 26 0 is_stmt 0 discriminator 1
 173 00de 0FB645EA 		movzbl	-22(%rbp), %eax
 174 00e2 3A45E9   		cmpb	-23(%rbp), %al
 175 00e5 0F85C100 		jne	.L6
 175      0000
  27:/home/dl_core/dl_core.c ****       
  28:/home/dl_core/dl_core.c ****       D1 = dl_core_core(S1,S2,N-1,M) + 1;
 176              		.loc 2 28 0 is_stmt 1
 177 00eb 8B45CC   		movl	-52(%rbp), %eax
 178 00ee 8D78FF   		leal	-1(%rax), %edi
 179 00f1 8B55C8   		movl	-56(%rbp), %edx
 180 00f4 488B75D0 		movq	-48(%rbp), %rsi
 181 00f8 488B45D8 		movq	-40(%rbp), %rax
 182 00fc 89D1     		movl	%edx, %ecx
 183 00fe 89FA     		movl	%edi, %edx
 184 0100 4889C7   		movq	%rax, %rdi
 185 0103 E8000000 		call	dl_core_core@PLT
 185      00
 186 0108 83C001   		addl	$1, %eax
 187 010b 8945F0   		movl	%eax, -16(%rbp)
  29:/home/dl_core/dl_core.c ****       D2 = dl_core_core(S1,S2,N,M-1) + 1;
 188              		.loc 2 29 0
 189 010e 8B45C8   		movl	-56(%rbp), %eax
 190 0111 8D48FF   		leal	-1(%rax), %ecx
 191 0114 8B55CC   		movl	-52(%rbp), %edx
 192 0117 488B75D0 		movq	-48(%rbp), %rsi
 193 011b 488B45D8 		movq	-40(%rbp), %rax
 194 011f 4889C7   		movq	%rax, %rdi
 195 0122 E8000000 		call	dl_core_core@PLT
 195      00
 196 0127 83C001   		addl	$1, %eax
 197 012a 8945F4   		movl	%eax, -12(%rbp)
  30:/home/dl_core/dl_core.c ****       D3 = dl_core_core(S1,S2,N-1,M-1);
 198              		.loc 2 30 0
 199 012d 8B45C8   		movl	-56(%rbp), %eax
 200 0130 8D48FF   		leal	-1(%rax), %ecx
 201 0133 8B45CC   		movl	-52(%rbp), %eax
 202 0136 8D50FF   		leal	-1(%rax), %edx
 203 0139 488B75D0 		movq	-48(%rbp), %rsi
 204 013d 488B45D8 		movq	-40(%rbp), %rax
 205 0141 4889C7   		movq	%rax, %rdi
 206 0144 E8000000 		call	dl_core_core@PLT
 206      00
 207 0149 8945EC   		movl	%eax, -20(%rbp)
  31:/home/dl_core/dl_core.c ****       D4 = dl_core_core(S1,S2,N-2,M-2) + 1;
 208              		.loc 2 31 0
 209 014c 8B45C8   		movl	-56(%rbp), %eax
 210 014f 8D48FE   		leal	-2(%rax), %ecx
 211 0152 8B45CC   		movl	-52(%rbp), %eax
 212 0155 8D50FE   		leal	-2(%rax), %edx
 213 0158 488B75D0 		movq	-48(%rbp), %rsi
 214 015c 488B45D8 		movq	-40(%rbp), %rax
 215 0160 4889C7   		movq	%rax, %rdi
 216 0163 E8000000 		call	dl_core_core@PLT
 216      00
 217 0168 83C001   		addl	$1, %eax
 218 016b 8945F8   		movl	%eax, -8(%rbp)
  32:/home/dl_core/dl_core.c ****                                                         
  33:/home/dl_core/dl_core.c ****       if( AN != BM ){
 219              		.loc 2 33 0
 220 016e 0FB645E8 		movzbl	-24(%rbp), %eax
 221 0172 3A45E9   		cmpb	-23(%rbp), %al
 222 0175 7404     		je	.L7
  34:/home/dl_core/dl_core.c ****         D3 += 1;
 223              		.loc 2 34 0
 224 0177 8345EC01 		addl	$1, -20(%rbp)
 225              	.L7:
  35:/home/dl_core/dl_core.c ****       }
  36:/home/dl_core/dl_core.c ****                                                               
  37:/home/dl_core/dl_core.c ****       distance = MIN(D1,D2);
 226              		.loc 2 37 0
 227 017b 8B45F0   		movl	-16(%rbp), %eax
 228 017e 3945F4   		cmpl	%eax, -12(%rbp)
 229 0181 0F4E45F4 		cmovle	-12(%rbp), %eax
 230 0185 8945FC   		movl	%eax, -4(%rbp)
  38:/home/dl_core/dl_core.c ****       distance = MIN(distance,D3);
 231              		.loc 2 38 0
 232 0188 8B45FC   		movl	-4(%rbp), %eax
 233 018b 3945EC   		cmpl	%eax, -20(%rbp)
 234 018e 0F4E45EC 		cmovle	-20(%rbp), %eax
 235 0192 8945FC   		movl	%eax, -4(%rbp)
  39:/home/dl_core/dl_core.c ****       distance = MIN(distance,D4);
 236              		.loc 2 39 0
 237 0195 8B45FC   		movl	-4(%rbp), %eax
 238 0198 3945F8   		cmpl	%eax, -8(%rbp)
 239 019b 0F4E45F8 		cmovle	-8(%rbp), %eax
 240 019f 8945FC   		movl	%eax, -4(%rbp)
  40:/home/dl_core/dl_core.c ****                                                         
  41:/home/dl_core/dl_core.c ****       return distance;
 241              		.loc 2 41 0
 242 01a2 8B45FC   		movl	-4(%rbp), %eax
 243 01a5 4898     		cltq
 244 01a7 E98D0000 		jmp	.L5
 244      00
 245              	.L6:
 246              	.LBE2:
  42:/home/dl_core/dl_core.c ****     }    
  43:/home/dl_core/dl_core.c **** 
  44:/home/dl_core/dl_core.c ****   }
  45:/home/dl_core/dl_core.c ****             
  46:/home/dl_core/dl_core.c ****   D1 = dl_core_core(S1,S2,N-1,M) + 1;
 247              		.loc 2 46 0
 248 01ac 8B45CC   		movl	-52(%rbp), %eax
 249 01af 8D78FF   		leal	-1(%rax), %edi
 250 01b2 8B55C8   		movl	-56(%rbp), %edx
 251 01b5 488B75D0 		movq	-48(%rbp), %rsi
 252 01b9 488B45D8 		movq	-40(%rbp), %rax
 253 01bd 89D1     		movl	%edx, %ecx
 254 01bf 89FA     		movl	%edi, %edx
 255 01c1 4889C7   		movq	%rax, %rdi
 256 01c4 E8000000 		call	dl_core_core@PLT
 256      00
 257 01c9 83C001   		addl	$1, %eax
 258 01cc 8945F0   		movl	%eax, -16(%rbp)
  47:/home/dl_core/dl_core.c ****   D2 = dl_core_core(S1,S2,N,M-1) + 1;
 259              		.loc 2 47 0
 260 01cf 8B45C8   		movl	-56(%rbp), %eax
 261 01d2 8D48FF   		leal	-1(%rax), %ecx
 262 01d5 8B55CC   		movl	-52(%rbp), %edx
 263 01d8 488B75D0 		movq	-48(%rbp), %rsi
 264 01dc 488B45D8 		movq	-40(%rbp), %rax
 265 01e0 4889C7   		movq	%rax, %rdi
 266 01e3 E8000000 		call	dl_core_core@PLT
 266      00
 267 01e8 83C001   		addl	$1, %eax
 268 01eb 8945F4   		movl	%eax, -12(%rbp)
  48:/home/dl_core/dl_core.c ****   D3 = dl_core_core(S1,S2,N-1,M-1);
 269              		.loc 2 48 0
 270 01ee 8B45C8   		movl	-56(%rbp), %eax
 271 01f1 8D48FF   		leal	-1(%rax), %ecx
 272 01f4 8B45CC   		movl	-52(%rbp), %eax
 273 01f7 8D50FF   		leal	-1(%rax), %edx
 274 01fa 488B75D0 		movq	-48(%rbp), %rsi
 275 01fe 488B45D8 		movq	-40(%rbp), %rax
 276 0202 4889C7   		movq	%rax, %rdi
 277 0205 E8000000 		call	dl_core_core@PLT
 277      00
 278 020a 8945EC   		movl	%eax, -20(%rbp)
  49:/home/dl_core/dl_core.c ****                   
  50:/home/dl_core/dl_core.c ****   if( AN != BM ){
 279              		.loc 2 50 0
 280 020d 0FB645E8 		movzbl	-24(%rbp), %eax
 281 0211 3A45E9   		cmpb	-23(%rbp), %al
 282 0214 7404     		je	.L8
  51:/home/dl_core/dl_core.c ****     D3 += 1;
 283              		.loc 2 51 0
 284 0216 8345EC01 		addl	$1, -20(%rbp)
 285              	.L8:
  52:/home/dl_core/dl_core.c ****   }
  53:/home/dl_core/dl_core.c ****                     
  54:/home/dl_core/dl_core.c ****   distance = MIN(D1,D2);
 286              		.loc 2 54 0
 287 021a 8B45F0   		movl	-16(%rbp), %eax
 288 021d 3945F4   		cmpl	%eax, -12(%rbp)
 289 0220 0F4E45F4 		cmovle	-12(%rbp), %eax
 290 0224 8945FC   		movl	%eax, -4(%rbp)
  55:/home/dl_core/dl_core.c ****   distance = MIN(distance,D3);
 291              		.loc 2 55 0
 292 0227 8B45FC   		movl	-4(%rbp), %eax
 293 022a 3945EC   		cmpl	%eax, -20(%rbp)
 294 022d 0F4E45EC 		cmovle	-20(%rbp), %eax
 295 0231 8945FC   		movl	%eax, -4(%rbp)
  56:/home/dl_core/dl_core.c ****                         
  57:/home/dl_core/dl_core.c ****   return distance;
 296              		.loc 2 57 0
 297 0234 8B45FC   		movl	-4(%rbp), %eax
 298 0237 4898     		cltq
 299              	.L5:
  58:/home/dl_core/dl_core.c **** 
  59:/home/dl_core/dl_core.c **** } 
 300              		.loc 2 59 0
 301 0239 C9       		leave
 302              		.cfi_def_cfa 7, 8
 303 023a C3       		ret
 304              		.cfi_endproc
 305              	.LFE70:
 307              		.section	.rodata
 308              	.LC4:
 309 003f 737300   		.string	"ss"
 310              		.text
 311              		.globl	zif_dl_core
 313              	zif_dl_core:
 314              	.LFB71:
  60:/home/dl_core/dl_core.c **** 
  61:/home/dl_core/dl_core.c **** 
  62:/home/dl_core/dl_core.c **** PHP_FUNCTION(dl_core)
  63:/home/dl_core/dl_core.c **** {
 315              		.loc 2 63 0
 316              		.cfi_startproc
 317 023b 55       		pushq	%rbp
 318              		.cfi_def_cfa_offset 16
 319              		.cfi_offset 6, -16
 320 023c 4889E5   		movq	%rsp, %rbp
 321              		.cfi_def_cfa_register 6
 322 023f 4883EC50 		subq	$80, %rsp
 323 0243 897DCC   		movl	%edi, -52(%rbp)
 324 0246 488975C0 		movq	%rsi, -64(%rbp)
 325 024a 488955B8 		movq	%rdx, -72(%rbp)
 326 024e 48894DB0 		movq	%rcx, -80(%rbp)
 327 0252 448945C8 		movl	%r8d, -56(%rbp)
 328              		.loc 2 63 0
 329 0256 64488B04 		movq	%fs:40, %rax
 329      25280000 
 329      00
 330 025f 488945F8 		movq	%rax, -8(%rbp)
 331 0263 31C0     		xorl	%eax, %eax
  64:/home/dl_core/dl_core.c ****   char *S1;
  65:/home/dl_core/dl_core.c ****   char *S2;
  66:/home/dl_core/dl_core.c ****   int N;
  67:/home/dl_core/dl_core.c ****   int M;
  68:/home/dl_core/dl_core.c ****   long distance = 0;
 332              		.loc 2 68 0
 333 0265 48C745E8 		movq	$0, -24(%rbp)
 333      00000000 
  69:/home/dl_core/dl_core.c **** 
  70:/home/dl_core/dl_core.c ****   if (zend_parse_parameters(ZEND_NUM_ARGS() TSRMLS_CC, "ss", &S1, &N, &S2, &M) == FAILURE) {
 334              		.loc 2 70 0
 335 026d 488D7DD4 		leaq	-44(%rbp), %rdi
 336 0271 488D75E0 		leaq	-32(%rbp), %rsi
 337 0275 488D4DD0 		leaq	-48(%rbp), %rcx
 338 0279 488D55D8 		leaq	-40(%rbp), %rdx
 339 027d 8B45CC   		movl	-52(%rbp), %eax
 340 0280 4989F9   		movq	%rdi, %r9
 341 0283 4989F0   		movq	%rsi, %r8
 342 0286 488D3500 		leaq	.LC4(%rip), %rsi
 342      000000
 343 028d 89C7     		movl	%eax, %edi
 344 028f B8000000 		movl	$0, %eax
 344      00
 345 0294 E8000000 		call	zend_parse_parameters@PLT
 345      00
 346 0299 83F8FF   		cmpl	$-1, %eax
 347 029c 750A     		jne	.L10
  71:/home/dl_core/dl_core.c ****     RETURN_NULL();
 348              		.loc 2 71 0
 349 029e 488B45C0 		movq	-64(%rbp), %rax
 350 02a2 C6401400 		movb	$0, 20(%rax)
 351 02a6 EB36     		jmp	.L9
 352              	.L10:
  72:/home/dl_core/dl_core.c ****   } 
  73:/home/dl_core/dl_core.c **** 
  74:/home/dl_core/dl_core.c ****   distance = dl_core_core(S1,S2,N,M);
 353              		.loc 2 74 0
 354 02a8 8B4DD4   		movl	-44(%rbp), %ecx
 355 02ab 8B55D0   		movl	-48(%rbp), %edx
 356 02ae 488B75E0 		movq	-32(%rbp), %rsi
 357 02b2 488B45D8 		movq	-40(%rbp), %rax
 358 02b6 4889C7   		movq	%rax, %rdi
 359 02b9 E8000000 		call	dl_core_core@PLT
 359      00
 360 02be 488945E8 		movq	%rax, -24(%rbp)
 361              	.LBB3:
  75:/home/dl_core/dl_core.c **** 	
  76:/home/dl_core/dl_core.c **** 	RETURN_LONG(distance);
 362              		.loc 2 76 0
 363 02c2 488B45C0 		movq	-64(%rbp), %rax
 364 02c6 488945F0 		movq	%rax, -16(%rbp)
 365 02ca 488B45F0 		movq	-16(%rbp), %rax
 366 02ce 488B55E8 		movq	-24(%rbp), %rdx
 367 02d2 488910   		movq	%rdx, (%rax)
 368 02d5 488B45F0 		movq	-16(%rbp), %rax
 369 02d9 C6401401 		movb	$1, 20(%rax)
 370              	.LBE3:
 371 02dd 90       		nop
 372              	.L9:
  77:/home/dl_core/dl_core.c **** }
 373              		.loc 2 77 0
 374 02de 488B45F8 		movq	-8(%rbp), %rax
 375 02e2 64483304 		xorq	%fs:40, %rax
 375      25280000 
 375      00
 376 02eb 7405     		je	.L13
 377 02ed E8000000 		call	__stack_chk_fail@PLT
 377      00
 378              	.L13:
 379 02f2 C9       		leave
 380              		.cfi_def_cfa 7, 8
 381 02f3 C3       		ret
 382              		.cfi_endproc
 383              	.LFE71:
 385              		.section	.rodata
 386              	.LC5:
 387 0042 61736C00 		.string	"asl"
 388              	.LC6:
 389 0046 64697374 		.string	"distance"
 389      616E6365 
 389      00
 390              	.LC7:
 391 004f 2F686F6D 		.string	"/home/dl_core/dl_core.c"
 391      652F646C 
 391      5F636F72 
 391      652F646C 
 391      5F636F72 
 392              	.LC8:
 393 0067 74657874 		.string	"text"
 393      00
 394 006c 00000000 		.align 8
 395              	.LC9:
 396 0070 203D3D3D 		.string	" ====> %s [%d] <> %s [%d] <==== \r\n"
 396      3D3E2025 
 396      73205B25 
 396      645D203C 
 396      3E202573 
 397              	.LC10:
 398 0093 43205374 		.string	"C Str: %.3s Len: %lu\r\n"
 398      723A2025 
 398      2E337320 
 398      4C656E3A 
 398      20256C75 
 399              	.LC11:
 400 00aa 4C205374 		.string	"L Str: %.3s Len: %lu\r\n"
 400      723A2025 
 400      2E337320 
 400      4C656E3A 
 400      20256C75 
 401              		.text
 402              		.globl	zif_dl_array
 404              	zif_dl_array:
 405              	.LFB72:
  78:/home/dl_core/dl_core.c **** 
  79:/home/dl_core/dl_core.c **** PHP_FUNCTION(dl_array)
  80:/home/dl_core/dl_core.c **** {
 406              		.loc 2 80 0
 407              		.cfi_startproc
 408 02f4 55       		pushq	%rbp
 409              		.cfi_def_cfa_offset 16
 410              		.cfi_offset 6, -16
 411 02f5 4889E5   		movq	%rsp, %rbp
 412              		.cfi_def_cfa_register 6
 413 02f8 4881ECB0 		subq	$176, %rsp
 413      000000
 414 02ff 89BD6CFF 		movl	%edi, -148(%rbp)
 414      FFFF
 415 0305 4889B560 		movq	%rsi, -160(%rbp)
 415      FFFFFF
 416 030c 48899558 		movq	%rdx, -168(%rbp)
 416      FFFFFF
 417 0313 48898D50 		movq	%rcx, -176(%rbp)
 417      FFFFFF
 418 031a 44898568 		movl	%r8d, -152(%rbp)
 418      FFFFFF
 419              		.loc 2 80 0
 420 0321 64488B04 		movq	%fs:40, %rax
 420      25280000 
 420      00
 421 032a 488945F8 		movq	%rax, -8(%rbp)
 422 032e 31C0     		xorl	%eax, %eax
  81:/home/dl_core/dl_core.c ****   zval  *array;
  82:/home/dl_core/dl_core.c ****   char  *text;  
  83:/home/dl_core/dl_core.c ****   int   text_len;
  84:/home/dl_core/dl_core.c ****   long  offset;
  85:/home/dl_core/dl_core.c ****   
  86:/home/dl_core/dl_core.c ****   HashTable *ht_array, *sub_array;
  87:/home/dl_core/dl_core.c ****   char  *text_part;  
  88:/home/dl_core/dl_core.c **** 
  89:/home/dl_core/dl_core.c ****   // –ü–æ–ª—É—á–∞–µ–º –∞—Ä–≥—É–º–µ–Ω—Ç—ã —Ñ—É–Ω–∫—Ü–∏–∏. –í–Ω–∏–º–∞–Ω–∏–µ! –û—à–∏–±–∫–∞ –≤ —Ç–∏–ø–µ
  90:/home/dl_core/dl_core.c ****   if (zend_parse_parameters(ZEND_NUM_ARGS() TSRMLS_DC, "asl", &array, &text, &text_len, &offset) ==
 423              		.loc 2 90 0
 424 0330 488D7D88 		leaq	-120(%rbp), %rdi
 425 0334 488DB570 		leaq	-144(%rbp), %rsi
 425      FFFFFF
 426 033b 488D4D80 		leaq	-128(%rbp), %rcx
 427 033f 488D9578 		leaq	-136(%rbp), %rdx
 427      FFFFFF
 428 0346 8B856CFF 		movl	-148(%rbp), %eax
 428      FFFF
 429 034c 4989F9   		movq	%rdi, %r9
 430 034f 4989F0   		movq	%rsi, %r8
 431 0352 488D3500 		leaq	.LC5(%rip), %rsi
 431      000000
 432 0359 89C7     		movl	%eax, %edi
 433 035b B8000000 		movl	$0, %eax
 433      00
 434 0360 E8000000 		call	zend_parse_parameters@PLT
 434      00
 435 0365 83F8FF   		cmpl	$-1, %eax
 436 0368 7523     		jne	.L15
 437              	.LBB4:
  91:/home/dl_core/dl_core.c ****     RETURN_FALSE;
 438              		.loc 2 91 0
 439 036a 488B8560 		movq	-160(%rbp), %rax
 439      FFFFFF
 440 0371 488945C0 		movq	%rax, -64(%rbp)
 441 0375 488B45C0 		movq	-64(%rbp), %rax
 442 0379 48C70000 		movq	$0, (%rax)
 442      000000
 443 0380 488B45C0 		movq	-64(%rbp), %rax
 444 0384 C6401403 		movb	$3, 20(%rax)
 445              	.LBE4:
 446 0388 E9470500 		jmp	.L14
 446      00
 447              	.L15:
  92:/home/dl_core/dl_core.c ****   }
  93:/home/dl_core/dl_core.c **** 
  94:/home/dl_core/dl_core.c ****   // –ü—Ä–µ–æ–±—Ä–∞–∑—É–µ–º zval –≤ HashTable –¥–ª—è —É–¥–æ–±—Å—Ç–≤–∞ —Ä–∞–±–æ—Ç—ã
  95:/home/dl_core/dl_core.c ****   ht_array = (HashTable *)Z_ARRVAL_P(array);
 448              		.loc 2 95 0
 449 038d 488B8578 		movq	-136(%rbp), %rax
 449      FFFFFF
 450 0394 488B00   		movq	(%rax), %rax
 451 0397 488945C8 		movq	%rax, -56(%rbp)
  96:/home/dl_core/dl_core.c **** 
  97:/home/dl_core/dl_core.c ****   // –ü–µ—Ä–µ–±–∏—Ä–∞–µ–º –≤—Å–µ —ç–ª–µ–º–µ–Ω—Ç—ã –º–∞—Å—Å–∏–≤–∞. –û–ø—Ä–µ–¥–µ–ª–µ–Ω–∏–µ —Å–º. dl_c
  98:/home/dl_core/dl_core.c ****   foreach_start(ht_array,key,data,pos);
 452              		.loc 2 98 0
 453 039b 488D5590 		leaq	-112(%rbp), %rdx
 454 039f 488B45C8 		movq	-56(%rbp), %rax
 455 03a3 4889D6   		movq	%rdx, %rsi
 456 03a6 4889C7   		movq	%rax, %rdi
 457 03a9 E8000000 		call	zend_hash_internal_pointer_reset_ex@PLT
 457      00
 458 03ae E9E30400 		jmp	.L17
 458      00
 459              	.L32:
 460              	.LBB5:
  99:/home/dl_core/dl_core.c **** 
 100:/home/dl_core/dl_core.c ****     zval          *distance;
 101:/home/dl_core/dl_core.c ****     zval          **cmp_val;
 102:/home/dl_core/dl_core.c ****     char          *cmp_text;
 103:/home/dl_core/dl_core.c ****     uint          cmp_text_len;
 104:/home/dl_core/dl_core.c ****     
 105:/home/dl_core/dl_core.c ****     // –ü–æ–ª—É—á–∞–µ–º –º–∞—Å—Å–∏–≤ –¥–∞–Ω–Ω—ã—Ö –∏–ª–∏ NULL
 106:/home/dl_core/dl_core.c ****     sub_array = Z_TYPE_PP(data) == IS_ARRAY ? Z_ARRVAL_PP(data) : NULL;
 461              		.loc 2 106 0
 462 03b3 488B4598 		movq	-104(%rbp), %rax
 463 03b7 488B00   		movq	(%rax), %rax
 464 03ba 0FB64014 		movzbl	20(%rax), %eax
 465 03be 3C04     		cmpb	$4, %al
 466 03c0 750C     		jne	.L18
 467              		.loc 2 106 0 is_stmt 0 discriminator 1
 468 03c2 488B4598 		movq	-104(%rbp), %rax
 469 03c6 488B00   		movq	(%rax), %rax
 470 03c9 488B00   		movq	(%rax), %rax
 471 03cc EB05     		jmp	.L19
 472              	.L18:
 473              		.loc 2 106 0 discriminator 2
 474 03ce B8000000 		movl	$0, %eax
 474      00
 475              	.L19:
 476              		.loc 2 106 0 discriminator 4
 477 03d3 488945D0 		movq	%rax, -48(%rbp)
 107:/home/dl_core/dl_core.c **** 
 108:/home/dl_core/dl_core.c ****     if( sub_array == NULL ){
 478              		.loc 2 108 0 is_stmt 1 discriminator 4
 479 03d7 48837DD0 		cmpq	$0, -48(%rbp)
 479      00
 480 03dc 7518     		jne	.L20
 109:/home/dl_core/dl_core.c ****       foreach_continue(ht_array,pos);     // –ï—Å–ª–∏ –¥–∞–Ω–Ω—ã—Ö –Ω–µ—Ç - —É—Ö–æ–¥–∏–º –∫ —Å–ª–µ–
 481              		.loc 2 109 0
 482 03de 488D5590 		leaq	-112(%rbp), %rdx
 483 03e2 488B45C8 		movq	-56(%rbp), %rax
 484 03e6 4889D6   		movq	%rdx, %rsi
 485 03e9 4889C7   		movq	%rax, %rdi
 486 03ec E8000000 		call	zend_hash_move_forward_ex@PLT
 486      00
 487 03f1 E9A00400 		jmp	.L17
 487      00
 488              	.L20:
 110:/home/dl_core/dl_core.c ****     }
 111:/home/dl_core/dl_core.c ****     
 112:/home/dl_core/dl_core.c ****     if( zend_hash_exists(sub_array, "distance", sizeof("distance")) ){
 489              		.loc 2 112 0
 490 03f6 488B45D0 		movq	-48(%rbp), %rax
 491 03fa BA090000 		movl	$9, %edx
 491      00
 492 03ff 488D3500 		leaq	.LC6(%rip), %rsi
 492      000000
 493 0406 4889C7   		movq	%rax, %rdi
 494 0409 E8000000 		call	zend_hash_exists@PLT
 494      00
 495 040e 85C0     		testl	%eax, %eax
 496 0410 7462     		je	.L22
 497              	.LBB6:
 113:/home/dl_core/dl_core.c ****       // –ü–æ–ª—É—á–∞–µ–º —Å—Å—ã–ª–∫—É –Ω–∞ —ç–ª–µ–º–µ–Ω—Ç –º–∞—Å—Å–∏–≤–∞
 114:/home/dl_core/dl_core.c ****       zval **ppdistance = NULL;
 498              		.loc 2 114 0
 499 0412 48C745A8 		movq	$0, -88(%rbp)
 499      00000000 
 115:/home/dl_core/dl_core.c ****       if( ( zend_hash_find(sub_array, "distance", sizeof("distance"), (void **)&ppdistance) != SUCC
 500              		.loc 2 115 0
 501 041a 488D55A8 		leaq	-88(%rbp), %rdx
 502 041e 488B45D0 		movq	-48(%rbp), %rax
 503 0422 4889D1   		movq	%rdx, %rcx
 504 0425 BA090000 		movl	$9, %edx
 504      00
 505 042a 488D3500 		leaq	.LC6(%rip), %rsi
 505      000000
 506 0431 4889C7   		movq	%rax, %rdi
 507 0434 E8000000 		call	zend_hash_find@PLT
 507      00
 508 0439 85C0     		testl	%eax, %eax
 509 043b 750F     		jne	.L23
 116:/home/dl_core/dl_core.c ****           ( Z_TYPE_PP(ppdistance) == IS_NULL ) ){
 510              		.loc 2 116 0 discriminator 1
 511 043d 488B45A8 		movq	-88(%rbp), %rax
 512 0441 488B00   		movq	(%rax), %rax
 513 0444 0FB64014 		movzbl	20(%rax), %eax
 115:/home/dl_core/dl_core.c ****       if( ( zend_hash_find(sub_array, "distance", sizeof("distance"), (void **)&ppdistance) != SUCC
 514              		.loc 2 115 0 discriminator 1
 515 0448 84C0     		testb	%al, %al
 516 044a 7518     		jne	.L24
 517              	.L23:
 117:/home/dl_core/dl_core.c ****         foreach_continue(ht_array,pos);     // –ï—Å–ª–∏ –¥–∞–Ω–Ω—ã—Ö –Ω–µ—Ç - —É—Ö–æ–¥–∏–º –∫ —Å–ª–
 518              		.loc 2 117 0
 519 044c 488D5590 		leaq	-112(%rbp), %rdx
 520 0450 488B45C8 		movq	-56(%rbp), %rax
 521 0454 4889D6   		movq	%rdx, %rsi
 522 0457 4889C7   		movq	%rax, %rdi
 523 045a E8000000 		call	zend_hash_move_forward_ex@PLT
 523      00
 524 045f E9320400 		jmp	.L17
 524      00
 525              	.L24:
 118:/home/dl_core/dl_core.c ****       }
 119:/home/dl_core/dl_core.c ****       // –ü–æ–ª—É—á–∞–µ–º –∑–Ω–∞—á–µ–Ω–∏–µ —É–∫–∞–∑–∞—Ç–µ–ª—è
 120:/home/dl_core/dl_core.c ****       distance = *ppdistance;
 526              		.loc 2 120 0
 527 0464 488B45A8 		movq	-88(%rbp), %rax
 528 0468 488B00   		movq	(%rax), %rax
 529 046b 488945A0 		movq	%rax, -96(%rbp)
 530              	.LBE6:
 531 046f E9A20000 		jmp	.L25
 531      00
 532              	.L22:
 121:/home/dl_core/dl_core.c ****     } else {
 122:/home/dl_core/dl_core.c ****         // –ï—Å–ª–∏ —ç–ª–µ–º–µ–Ω—Ç–∞ –Ω–µ—Ç - —Å–æ–∑–¥–∞–µ–º –µ–≥–æ        
 123:/home/dl_core/dl_core.c ****         // –°–æ–∑–¥–∞–¥–∏–º –∑–∞–ø–∏—Å—å distance –¥–ª—è –¥–æ–±–∞–≤–ª–µ–Ω–∏—è –≤ –º–∞—Å—Å–∏–≤
 124:/home/dl_core/dl_core.c ****         MAKE_STD_ZVAL(distance);
 533              		.loc 2 124 0
 534 0474 41B80000 		movl	$0, %r8d
 534      0000
 535 047a B9000000 		movl	$0, %ecx
 535      00
 536 047f BA7C0000 		movl	$124, %edx
 536      00
 537 0484 488D3500 		leaq	.LC7(%rip), %rsi
 537      000000
 538 048b BF200000 		movl	$32, %edi
 538      00
 539 0490 E8000000 		call	_emalloc@PLT
 539      00
 540 0495 488945A0 		movq	%rax, -96(%rbp)
 541 0499 488B45A0 		movq	-96(%rbp), %rax
 542 049d 48C74018 		movq	$0, 24(%rax)
 542      00000000 
 543 04a5 488B45A0 		movq	-96(%rbp), %rax
 544 04a9 C7401001 		movl	$1, 16(%rax)
 544      000000
 545 04b0 488B45A0 		movq	-96(%rbp), %rax
 546 04b4 C6401500 		movb	$0, 21(%rax)
 125:/home/dl_core/dl_core.c ****         convert_to_long(distance);
 547              		.loc 2 125 0
 548 04b8 488B45A0 		movq	-96(%rbp), %rax
 549 04bc 4889C7   		movq	%rax, %rdi
 550 04bf E8000000 		call	convert_to_long@PLT
 550      00
 126:/home/dl_core/dl_core.c ****         
 127:/home/dl_core/dl_core.c ****         //–ò–∑–Ω–∞—á–∞–ª—å–Ω—É—é –¥–ª–∏–Ω–Ω—É –≤—ã—Å—Ç–∞–≤–ª—è–µ–º –≤ -1
 128:/home/dl_core/dl_core.c ****         Z_LVAL_P(distance) = text_len;
 551              		.loc 2 128 0
 552 04c4 488B45A0 		movq	-96(%rbp), %rax
 553 04c8 8B9570FF 		movl	-144(%rbp), %edx
 553      FFFF
 554 04ce 4863D2   		movslq	%edx, %rdx
 555 04d1 488910   		movq	%rdx, (%rax)
 129:/home/dl_core/dl_core.c **** 
 130:/home/dl_core/dl_core.c ****         // –î–æ–±–∞–≤–ª—è–µ–º distance —ç–ª–µ–º–µ–Ω—Ç –≤ –º–∞—Å—Å–∏–≤
 131:/home/dl_core/dl_core.c ****         zend_hash_add(sub_array, "distance", sizeof("distance"), (void **)&distance, sizeof(zval), 
 556              		.loc 2 131 0
 557 04d4 4883EC08 		subq	$8, %rsp
 558 04d8 488D55A0 		leaq	-96(%rbp), %rdx
 559 04dc 488B45D0 		movq	-48(%rbp), %rax
 560 04e0 68830000 		pushq	$131
 560      00
 561 04e5 488D0D00 		leaq	.LC7(%rip), %rcx
 561      000000
 562 04ec 51       		pushq	%rcx
 563 04ed 6A02     		pushq	$2
 564 04ef 41B90000 		movl	$0, %r9d
 564      0000
 565 04f5 41B81800 		movl	$24, %r8d
 565      0000
 566 04fb 4889D1   		movq	%rdx, %rcx
 567 04fe BA090000 		movl	$9, %edx
 567      00
 568 0503 488D3500 		leaq	.LC6(%rip), %rsi
 568      000000
 569 050a 4889C7   		movq	%rax, %rdi
 570 050d E8000000 		call	_zend_hash_add_or_update@PLT
 570      00
 571 0512 4883C420 		addq	$32, %rsp
 572              	.L25:
 132:/home/dl_core/dl_core.c ****     }
 133:/home/dl_core/dl_core.c **** 
 134:/home/dl_core/dl_core.c ****     // –ü–æ–ª—É—á–∞–µ–º —Ç–µ–∫—Å—Ç –¥–ª—è —Å—Ä–∞–≤–Ω–µ–Ω–∏—è
 135:/home/dl_core/dl_core.c ****     // –ï—Å–ª–∏ —Ç–µ–∫—Å—Ç–∞ –Ω–µ—Ç - –ø—Ä–æ–¥–æ–ª–∂–∞–µ–º —Å–æ —Å–ª–µ–¥—É—é—â–∏–º —ç–ª–µ–º–µ–Ω—Ç–æ
 136:/home/dl_core/dl_core.c ****     if( ( zend_hash_find(sub_array, ZEND_STRS("text"), (void **)&cmp_val) != SUCCESS ) ||
 573              		.loc 2 136 0
 574 0516 488D55A8 		leaq	-88(%rbp), %rdx
 575 051a 488B45D0 		movq	-48(%rbp), %rax
 576 051e 4889D1   		movq	%rdx, %rcx
 577 0521 BA050000 		movl	$5, %edx
 577      00
 578 0526 488D3500 		leaq	.LC8(%rip), %rsi
 578      000000
 579 052d 4889C7   		movq	%rax, %rdi
 580 0530 E8000000 		call	zend_hash_find@PLT
 580      00
 581 0535 85C0     		testl	%eax, %eax
 582 0537 750F     		jne	.L26
 137:/home/dl_core/dl_core.c ****         ( Z_TYPE_PP(cmp_val) != IS_STRING ) ){
 583              		.loc 2 137 0 discriminator 1
 584 0539 488B45A8 		movq	-88(%rbp), %rax
 585 053d 488B00   		movq	(%rax), %rax
 586 0540 0FB64014 		movzbl	20(%rax), %eax
 136:/home/dl_core/dl_core.c ****         ( Z_TYPE_PP(cmp_val) != IS_STRING ) ){
 587              		.loc 2 136 0 discriminator 1
 588 0544 3C06     		cmpb	$6, %al
 589 0546 7418     		je	.L27
 590              	.L26:
 138:/home/dl_core/dl_core.c ****         foreach_continue(ht_array,pos);
 591              		.loc 2 138 0
 592 0548 488D5590 		leaq	-112(%rbp), %rdx
 593 054c 488B45C8 		movq	-56(%rbp), %rax
 594 0550 4889D6   		movq	%rdx, %rsi
 595 0553 4889C7   		movq	%rax, %rdi
 596 0556 E8000000 		call	zend_hash_move_forward_ex@PLT
 596      00
 597 055b E9360300 		jmp	.L17
 597      00
 598              	.L27:
 139:/home/dl_core/dl_core.c ****     }
 140:/home/dl_core/dl_core.c **** 
 141:/home/dl_core/dl_core.c ****     // –ü–µ—Ä–µ–≤–æ–¥–∏–º —Ç–µ–∫—Å—Ç –∏–∑ zval –≤ char
 142:/home/dl_core/dl_core.c ****     cmp_text        = Z_STRVAL_PP(cmp_val);
 599              		.loc 2 142 0
 600 0560 488B45A8 		movq	-88(%rbp), %rax
 601 0564 488B00   		movq	(%rax), %rax
 602 0567 488B00   		movq	(%rax), %rax
 603 056a 488945D8 		movq	%rax, -40(%rbp)
 143:/home/dl_core/dl_core.c ****     cmp_text_len    = Z_STRLEN_PP(cmp_val);
 604              		.loc 2 143 0
 605 056e 488B45A8 		movq	-88(%rbp), %rax
 606 0572 488B00   		movq	(%rax), %rax
 607 0575 8B4008   		movl	8(%rax), %eax
 608 0578 898574FF 		movl	%eax, -140(%rbp)
 608      FFFF
 144:/home/dl_core/dl_core.c **** 
 145:/home/dl_core/dl_core.c ****     printf(" ====> %s [%d] <> %s [%d] <==== \r\n",text,text_len,cmp_text,cmp_text_len);
 609              		.loc 2 145 0
 610 057e 8B9570FF 		movl	-144(%rbp), %edx
 610      FFFF
 611 0584 488B4580 		movq	-128(%rbp), %rax
 612 0588 8BB574FF 		movl	-140(%rbp), %esi
 612      FFFF
 613 058e 488B4DD8 		movq	-40(%rbp), %rcx
 614 0592 4189F0   		movl	%esi, %r8d
 615 0595 4889C6   		movq	%rax, %rsi
 616 0598 488D3D00 		leaq	.LC9(%rip), %rdi
 616      000000
 617 059f B8000000 		movl	$0, %eax
 617      00
 618 05a4 E8000000 		call	printf@PLT
 618      00
 146:/home/dl_core/dl_core.c **** 
 147:/home/dl_core/dl_core.c ****     if( cmp_text_len < offset ){
 619              		.loc 2 147 0
 620 05a9 8B9574FF 		movl	-140(%rbp), %edx
 620      FFFF
 621 05af 488B4588 		movq	-120(%rbp), %rax
 622 05b3 4839C2   		cmpq	%rax, %rdx
 623 05b6 7D18     		jge	.L28
 148:/home/dl_core/dl_core.c ****       foreach_continue(ht_array,pos)
 624              		.loc 2 148 0
 625 05b8 488D5590 		leaq	-112(%rbp), %rdx
 626 05bc 488B45C8 		movq	-56(%rbp), %rax
 627 05c0 4889D6   		movq	%rdx, %rsi
 628 05c3 4889C7   		movq	%rax, %rdi
 629 05c6 E8000000 		call	zend_hash_move_forward_ex@PLT
 629      00
 630 05cb E9C60200 		jmp	.L17
 630      00
 631              	.L28:
 149:/home/dl_core/dl_core.c ****     }
 150:/home/dl_core/dl_core.c **** 
 151:/home/dl_core/dl_core.c ****     if( (cmp_text_len + offset) < text_len ){
 632              		.loc 2 151 0
 633 05d0 8B9574FF 		movl	-140(%rbp), %edx
 633      FFFF
 634 05d6 488B4588 		movq	-120(%rbp), %rax
 635 05da 4801C2   		addq	%rax, %rdx
 636 05dd 8B8570FF 		movl	-144(%rbp), %eax
 636      FFFF
 637 05e3 4898     		cltq
 638 05e5 4839C2   		cmpq	%rax, %rdx
 639 05e8 7D66     		jge	.L29
 152:/home/dl_core/dl_core.c ****       Z_LVAL_P(distance) += dl_core_core(text, cmp_text + offset, cmp_text_len-offset, cmp_text_len
 640              		.loc 2 152 0
 641 05ea 488B4588 		movq	-120(%rbp), %rax
 642 05ee 89C2     		movl	%eax, %edx
 643 05f0 8B8574FF 		movl	-140(%rbp), %eax
 643      FFFF
 644 05f6 29D0     		subl	%edx, %eax
 645 05f8 89C1     		movl	%eax, %ecx
 646 05fa 488B4588 		movq	-120(%rbp), %rax
 647 05fe 89C2     		movl	%eax, %edx
 648 0600 8B8574FF 		movl	-140(%rbp), %eax
 648      FFFF
 649 0606 29D0     		subl	%edx, %eax
 650 0608 89C2     		movl	%eax, %edx
 651 060a 488B4588 		movq	-120(%rbp), %rax
 652 060e 4889C6   		movq	%rax, %rsi
 653 0611 488B45D8 		movq	-40(%rbp), %rax
 654 0615 4801C6   		addq	%rax, %rsi
 655 0618 488B4580 		movq	-128(%rbp), %rax
 656 061c 4889C7   		movq	%rax, %rdi
 657 061f E8000000 		call	dl_core_core@PLT
 657      00
 658 0624 4889C1   		movq	%rax, %rcx
 659 0627 488B45A0 		movq	-96(%rbp), %rax
 660 062b 488B55A0 		movq	-96(%rbp), %rdx
 661 062f 488B12   		movq	(%rdx), %rdx
 662 0632 4801CA   		addq	%rcx, %rdx
 663 0635 488910   		movq	%rdx, (%rax)
 153:/home/dl_core/dl_core.c ****       foreach_continue(ht_array,pos)
 664              		.loc 2 153 0
 665 0638 488D5590 		leaq	-112(%rbp), %rdx
 666 063c 488B45C8 		movq	-56(%rbp), %rax
 667 0640 4889D6   		movq	%rdx, %rsi
 668 0643 4889C7   		movq	%rax, %rdi
 669 0646 E8000000 		call	zend_hash_move_forward_ex@PLT
 669      00
 670 064b E9460200 		jmp	.L17
 670      00
 671              	.L29:
 154:/home/dl_core/dl_core.c ****     }
 155:/home/dl_core/dl_core.c **** 
 156:/home/dl_core/dl_core.c **** 
 157:/home/dl_core/dl_core.c ****     long D1 = text_len, D2 = text_len, D3 = text_len;
 672              		.loc 2 157 0
 673 0650 8B8570FF 		movl	-144(%rbp), %eax
 673      FFFF
 674 0656 4898     		cltq
 675 0658 488945E0 		movq	%rax, -32(%rbp)
 676 065c 8B8570FF 		movl	-144(%rbp), %eax
 676      FFFF
 677 0662 4898     		cltq
 678 0664 488945B0 		movq	%rax, -80(%rbp)
 679 0668 8B8570FF 		movl	-144(%rbp), %eax
 679      FFFF
 680 066e 4898     		cltq
 681 0670 488945B8 		movq	%rax, -72(%rbp)
 158:/home/dl_core/dl_core.c **** 
 159:/home/dl_core/dl_core.c ****     text_part = (char *)emalloc(text_len);
 682              		.loc 2 159 0
 683 0674 8B8570FF 		movl	-144(%rbp), %eax
 683      FFFF
 684 067a 4898     		cltq
 685 067c 41B80000 		movl	$0, %r8d
 685      0000
 686 0682 B9000000 		movl	$0, %ecx
 686      00
 687 0687 BA9F0000 		movl	$159, %edx
 687      00
 688 068c 488D3500 		leaq	.LC7(%rip), %rsi
 688      000000
 689 0693 4889C7   		movq	%rax, %rdi
 690 0696 E8000000 		call	_emalloc@PLT
 690      00
 691 069b 488945E8 		movq	%rax, -24(%rbp)
 160:/home/dl_core/dl_core.c ****     memset(text_part, 0, text_len);
 692              		.loc 2 160 0
 693 069f 8B8570FF 		movl	-144(%rbp), %eax
 693      FFFF
 694 06a5 4863D0   		movslq	%eax, %rdx
 695 06a8 488B45E8 		movq	-24(%rbp), %rax
 696 06ac BE000000 		movl	$0, %esi
 696      00
 697 06b1 4889C7   		movq	%rax, %rdi
 698 06b4 E8000000 		call	memset@PLT
 698      00
 161:/home/dl_core/dl_core.c **** 
 162:/home/dl_core/dl_core.c ****     // –°—Ä–∞–≤–Ω–∏–≤–∞–µ–º –ø—Ä—è–º–æ–µ —Å–æ–≤–ø–∞–¥–µ–Ω–∏–µ —á–∞—Å—Ç–µ–π
 163:/home/dl_core/dl_core.c ****     memcpy(text_part, cmp_text + offset, text_len);
 699              		.loc 2 163 0
 700 06b9 8B8570FF 		movl	-144(%rbp), %eax
 700      FFFF
 701 06bf 4863D0   		movslq	%eax, %rdx
 702 06c2 488B4588 		movq	-120(%rbp), %rax
 703 06c6 4889C1   		movq	%rax, %rcx
 704 06c9 488B45D8 		movq	-40(%rbp), %rax
 705 06cd 4801C1   		addq	%rax, %rcx
 706 06d0 488B45E8 		movq	-24(%rbp), %rax
 707 06d4 4889CE   		movq	%rcx, %rsi
 708 06d7 4889C7   		movq	%rax, %rdi
 709 06da E8000000 		call	memcpy@PLT
 709      00
 164:/home/dl_core/dl_core.c ****     D1 = dl_core_core(text, cmp_text + offset, text_len,text_len);
 710              		.loc 2 164 0
 711 06df 8B8D70FF 		movl	-144(%rbp), %ecx
 711      FFFF
 712 06e5 8B9570FF 		movl	-144(%rbp), %edx
 712      FFFF
 713 06eb 488B4588 		movq	-120(%rbp), %rax
 714 06ef 4889C6   		movq	%rax, %rsi
 715 06f2 488B45D8 		movq	-40(%rbp), %rax
 716 06f6 4801C6   		addq	%rax, %rsi
 717 06f9 488B4580 		movq	-128(%rbp), %rax
 718 06fd 4889C7   		movq	%rax, %rdi
 719 0700 E8000000 		call	dl_core_core@PLT
 719      00
 720 0705 488945E0 		movq	%rax, -32(%rbp)
 165:/home/dl_core/dl_core.c ****     printf("C Str: %.3s Len: %lu\r\n",text_part,D1);
 721              		.loc 2 165 0
 722 0709 488B55E0 		movq	-32(%rbp), %rdx
 723 070d 488B45E8 		movq	-24(%rbp), %rax
 724 0711 4889C6   		movq	%rax, %rsi
 725 0714 488D3D00 		leaq	.LC10(%rip), %rdi
 725      000000
 726 071b B8000000 		movl	$0, %eax
 726      00
 727 0720 E8000000 		call	printf@PLT
 727      00
 166:/home/dl_core/dl_core.c **** 
 167:/home/dl_core/dl_core.c ****     // –°—Ä–∞–≤–Ω–∏–≤–∞–µ–º —Å–æ–≤–ø–∞–¥–µ–Ω–∏–µ —Å–º–µ—â–µ–Ω–Ω–æ–≥–æ –Ω–∞ 1 —Å–∏–º–≤–æ–ª –≤–ª–µ–≤–
 168:/home/dl_core/dl_core.c ****     if( offset > 0){
 728              		.loc 2 168 0
 729 0725 488B4588 		movq	-120(%rbp), %rax
 730 0729 4885C0   		testq	%rax, %rax
 731 072c 7E6E     		jle	.L30
 169:/home/dl_core/dl_core.c ****       //–°—Ä–∞–≤–Ω–∏–≤–∞–µ–º —Ç–æ–ª—å–∫–æ –ø—Ä–∏ —É—Å–ª–æ–≤–∏–∏ –Ω–∞–ª–∏—á–∏—è —Å–∏–º–≤–æ–ª–∞ —Å–ª–
 170:/home/dl_core/dl_core.c ****         memcpy(text_part, cmp_text + offset - 1, text_len);
 732              		.loc 2 170 0
 733 072e 8B8570FF 		movl	-144(%rbp), %eax
 733      FFFF
 734 0734 4863D0   		movslq	%eax, %rdx
 735 0737 488B4588 		movq	-120(%rbp), %rax
 736 073b 488D48FF 		leaq	-1(%rax), %rcx
 737 073f 488B45D8 		movq	-40(%rbp), %rax
 738 0743 4801C1   		addq	%rax, %rcx
 739 0746 488B45E8 		movq	-24(%rbp), %rax
 740 074a 4889CE   		movq	%rcx, %rsi
 741 074d 4889C7   		movq	%rax, %rdi
 742 0750 E8000000 		call	memcpy@PLT
 742      00
 171:/home/dl_core/dl_core.c ****         D2 = dl_core_core(text, cmp_text + offset - 1, text_len,text_len);
 743              		.loc 2 171 0
 744 0755 8B8D70FF 		movl	-144(%rbp), %ecx
 744      FFFF
 745 075b 8B9570FF 		movl	-144(%rbp), %edx
 745      FFFF
 746 0761 488B4588 		movq	-120(%rbp), %rax
 747 0765 488D70FF 		leaq	-1(%rax), %rsi
 748 0769 488B45D8 		movq	-40(%rbp), %rax
 749 076d 4801C6   		addq	%rax, %rsi
 750 0770 488B4580 		movq	-128(%rbp), %rax
 751 0774 4889C7   		movq	%rax, %rdi
 752 0777 E8000000 		call	dl_core_core@PLT
 752      00
 753 077c 488945B0 		movq	%rax, -80(%rbp)
 172:/home/dl_core/dl_core.c ****         printf("L Str: %.3s Len: %lu\r\n",text_part,D2);
 754              		.loc 2 172 0
 755 0780 488B55B0 		movq	-80(%rbp), %rdx
 756 0784 488B45E8 		movq	-24(%rbp), %rax
 757 0788 4889C6   		movq	%rax, %rsi
 758 078b 488D3D00 		leaq	.LC11(%rip), %rdi
 758      000000
 759 0792 B8000000 		movl	$0, %eax
 759      00
 760 0797 E8000000 		call	printf@PLT
 760      00
 761              	.L30:
 173:/home/dl_core/dl_core.c ****     }
 174:/home/dl_core/dl_core.c **** 
 175:/home/dl_core/dl_core.c ****     // –°—Ä–∞–≤–Ω–∏–≤–∞–µ–º —Å–æ–≤–ø–∞–¥–µ–Ω–∏–µ —Å–º–µ—â–µ–Ω–Ω–æ–≥–æ –Ω–∞ 1 —Å–∏–º–≤–æ–ª –≤–ø—Ä–∞–
 176:/home/dl_core/dl_core.c ****     if( cmp_text_len > (offset + text_len + 1) ){
 762              		.loc 2 176 0
 763 079c 8B8574FF 		movl	-140(%rbp), %eax
 763      FFFF
 764 07a2 8B9570FF 		movl	-144(%rbp), %edx
 764      FFFF
 765 07a8 4863CA   		movslq	%edx, %rcx
 766 07ab 488B5588 		movq	-120(%rbp), %rdx
 767 07af 4801CA   		addq	%rcx, %rdx
 768 07b2 4883C201 		addq	$1, %rdx
 769 07b6 4839D0   		cmpq	%rdx, %rax
 770 07b9 7E6E     		jle	.L31
 177:/home/dl_core/dl_core.c ****       //–°—Ä–∞–≤–Ω–∏–≤–∞–µ–º —Ç–æ–ª—å–∫–æ –ø—Ä–∏ —É—Å–ª–æ–≤–∏–∏ –Ω–∞–ª–∏—á–∏—è —Å–∏–º–≤–æ–ª–∞ —Å–ª–
 178:/home/dl_core/dl_core.c ****       memcpy(text_part, cmp_text + offset + 1, text_len);
 771              		.loc 2 178 0
 772 07bb 8B8570FF 		movl	-144(%rbp), %eax
 772      FFFF
 773 07c1 4863D0   		movslq	%eax, %rdx
 774 07c4 488B4588 		movq	-120(%rbp), %rax
 775 07c8 488D4801 		leaq	1(%rax), %rcx
 776 07cc 488B45D8 		movq	-40(%rbp), %rax
 777 07d0 4801C1   		addq	%rax, %rcx
 778 07d3 488B45E8 		movq	-24(%rbp), %rax
 779 07d7 4889CE   		movq	%rcx, %rsi
 780 07da 4889C7   		movq	%rax, %rdi
 781 07dd E8000000 		call	memcpy@PLT
 781      00
 179:/home/dl_core/dl_core.c ****       D3 = dl_core_core(text, cmp_text + offset + 1, text_len,text_len);
 782              		.loc 2 179 0
 783 07e2 8B8D70FF 		movl	-144(%rbp), %ecx
 783      FFFF
 784 07e8 8B9570FF 		movl	-144(%rbp), %edx
 784      FFFF
 785 07ee 488B4588 		movq	-120(%rbp), %rax
 786 07f2 488D7001 		leaq	1(%rax), %rsi
 787 07f6 488B45D8 		movq	-40(%rbp), %rax
 788 07fa 4801C6   		addq	%rax, %rsi
 789 07fd 488B4580 		movq	-128(%rbp), %rax
 790 0801 4889C7   		movq	%rax, %rdi
 791 0804 E8000000 		call	dl_core_core@PLT
 791      00
 792 0809 488945B8 		movq	%rax, -72(%rbp)
 180:/home/dl_core/dl_core.c ****       printf("L Str: %.3s Len: %lu\r\n",text_part,D3);
 793              		.loc 2 180 0
 794 080d 488B55B8 		movq	-72(%rbp), %rdx
 795 0811 488B45E8 		movq	-24(%rbp), %rax
 796 0815 4889C6   		movq	%rax, %rsi
 797 0818 488D3D00 		leaq	.LC11(%rip), %rdi
 797      000000
 798 081f B8000000 		movl	$0, %eax
 798      00
 799 0824 E8000000 		call	printf@PLT
 799      00
 800              	.L31:
 181:/home/dl_core/dl_core.c ****     }
 182:/home/dl_core/dl_core.c **** 
 183:/home/dl_core/dl_core.c ****     efree(text_part);
 801              		.loc 2 183 0
 802 0829 488B45E8 		movq	-24(%rbp), %rax
 803 082d 41B80000 		movl	$0, %r8d
 803      0000
 804 0833 B9000000 		movl	$0, %ecx
 804      00
 805 0838 BAB70000 		movl	$183, %edx
 805      00
 806 083d 488D3500 		leaq	.LC7(%rip), %rsi
 806      000000
 807 0844 4889C7   		movq	%rax, %rdi
 808 0847 E8000000 		call	_efree@PLT
 808      00
 184:/home/dl_core/dl_core.c ****     // –í—ã–±–∏—Ä–∞–µ–º –Ω–∞–∏–º–µ–Ω—å—à—É—é –æ—à–∏–±–∫—É —Å—Ä–∞–≤–Ω–µ–Ω–∏–π
 185:/home/dl_core/dl_core.c ****     D1 = MIN(D1,D2);
 809              		.loc 2 185 0
 810 084c 488B45E0 		movq	-32(%rbp), %rax
 811 0850 483945B0 		cmpq	%rax, -80(%rbp)
 812 0854 480F4E45 		cmovle	-80(%rbp), %rax
 812      B0
 813 0859 488945E0 		movq	%rax, -32(%rbp)
 186:/home/dl_core/dl_core.c ****     D1 = MIN(D1,D3);
 814              		.loc 2 186 0
 815 085d 488B45E0 		movq	-32(%rbp), %rax
 816 0861 483945B8 		cmpq	%rax, -72(%rbp)
 817 0865 480F4E45 		cmovle	-72(%rbp), %rax
 817      B8
 818 086a 488945E0 		movq	%rax, -32(%rbp)
 187:/home/dl_core/dl_core.c **** 
 188:/home/dl_core/dl_core.c ****     Z_LVAL_P(distance) += D1;
 819              		.loc 2 188 0
 820 086e 488B45A0 		movq	-96(%rbp), %rax
 821 0872 488B55A0 		movq	-96(%rbp), %rdx
 822 0876 488B0A   		movq	(%rdx), %rcx
 823 0879 488B55E0 		movq	-32(%rbp), %rdx
 824 087d 4801CA   		addq	%rcx, %rdx
 825 0880 488910   		movq	%rdx, (%rax)
 189:/home/dl_core/dl_core.c ****     
 190:/home/dl_core/dl_core.c ****     foreach_end(ht_array,pos)
 826              		.loc 2 190 0
 827 0883 488D5590 		leaq	-112(%rbp), %rdx
 828 0887 488B45C8 		movq	-56(%rbp), %rax
 829 088b 4889D6   		movq	%rdx, %rsi
 830 088e 4889C7   		movq	%rax, %rdi
 831 0891 E8000000 		call	zend_hash_move_forward_ex@PLT
 831      00
 832              	.L17:
 833              	.LBE5:
  98:/home/dl_core/dl_core.c **** 
 834              		.loc 2 98 0 discriminator 1
 835 0896 488D5590 		leaq	-112(%rbp), %rdx
 836 089a 488D4D98 		leaq	-104(%rbp), %rcx
 837 089e 488B45C8 		movq	-56(%rbp), %rax
 838 08a2 4889CE   		movq	%rcx, %rsi
 839 08a5 4889C7   		movq	%rax, %rdi
 840 08a8 E8000000 		call	zend_hash_get_current_data_ex@PLT
 840      00
 841 08ad 85C0     		testl	%eax, %eax
 842 08af 0F84FEFA 		je	.L32
 842      FFFF
 843              	.LBB7:
 191:/home/dl_core/dl_core.c **** 	
 192:/home/dl_core/dl_core.c ****   RETURN_TRUE;
 844              		.loc 2 192 0
 845 08b5 488B8560 		movq	-160(%rbp), %rax
 845      FFFFFF
 846 08bc 488945F0 		movq	%rax, -16(%rbp)
 847 08c0 488B45F0 		movq	-16(%rbp), %rax
 848 08c4 48C70001 		movq	$1, (%rax)
 848      000000
 849 08cb 488B45F0 		movq	-16(%rbp), %rax
 850 08cf C6401403 		movb	$3, 20(%rax)
 851              	.LBE7:
 852 08d3 90       		nop
 853              	.L14:
 193:/home/dl_core/dl_core.c **** }
 854              		.loc 2 193 0
 855 08d4 488B45F8 		movq	-8(%rbp), %rax
 856 08d8 64483304 		xorq	%fs:40, %rax
 856      25280000 
 856      00
 857 08e1 7405     		je	.L34
 858 08e3 E8000000 		call	__stack_chk_fail@PLT
 858      00
 859              	.L34:
 860 08e8 C9       		leave
 861              		.cfi_def_cfa 7, 8
 862 08e9 C3       		ret
 863              		.cfi_endproc
 864              	.LFE72:
 866              	.Letext0:
 867              		.file 3 "/usr/lib/gcc/x86_64-linux-gnu/4.9/include/stddef.h"
 868              		.file 4 "/usr/include/x86_64-linux-gnu/bits/types.h"
 869              		.file 5 "/usr/include/x86_64-linux-gnu/sys/types.h"
 870              		.file 6 "/usr/include/x86_64-linux-gnu/bits/sigset.h"
 871              		.file 7 "/usr/include/libio.h"
 872              		.file 8 "/home/php-src/usr/include/php/Zend/zend_types.h"
 873              		.file 9 "/home/php-src/usr/include/php/Zend/zend_object_handlers.h"
 874              		.file 10 "/home/php-src/usr/include/php/Zend/zend.h"
 875              		.file 11 "/home/php-src/usr/include/php/Zend/zend_hash.h"
 876              		.file 12 "/home/php-src/usr/include/php/Zend/zend_compile.h"
 877              		.file 13 "/home/php-src/usr/include/php/Zend/zend_ast.h"
 878              		.file 14 "/home/php-src/usr/include/php/Zend/zend_iterators.h"
 879              		.file 15 "/home/php-src/usr/include/php/Zend/zend_API.h"
 880              		.file 16 "/home/php-src/usr/include/php/Zend/zend_modules.h"
 881              		.file 17 "/home/php-src/usr/include/php/Zend/zend_gc.h"
 882              		.file 18 "/usr/include/x86_64-linux-gnu/bits/setjmp.h"
 883              		.file 19 "/usr/include/setjmp.h"
 884              		.file 20 "/home/php-src/usr/include/php/Zend/zend_globals_macros.h"
 885              		.file 21 "/home/php-src/usr/include/php/Zend/zend_globals.h"
 886              		.file 22 "/home/php-src/usr/include/php/Zend/zend_stack.h"
 887              		.file 23 "/home/php-src/usr/include/php/Zend/zend_ptr_stack.h"
 888              		.file 24 "/home/php-src/usr/include/php/Zend/zend_objects_API.h"
 889              		.file 25 "/usr/include/x86_64-linux-gnu/fpu_control.h"
 890              		.file 26 "/home/php-src/usr/include/php/Zend/zend_execute.h"
 891              		.file 27 "/home/php-src/usr/include/php/Zend/zend_ini.h"
 892              		.file 28 "/usr/include/stdio.h"
DEFINED SYMBOLS
                            *ABS*:0000000000000000 dl_core.c
     /tmp/ccHbgLe5.s:8      .rodata:0000000000000000 long_min_digits
     /tmp/ccHbgLe5.s:18     .data.rel:0000000000000000 dl_core_functions
     /tmp/ccHbgLe5.s:313    .text:000000000000023b zif_dl_core
     /tmp/ccHbgLe5.s:404    .text:00000000000002f4 zif_dl_array
     /tmp/ccHbgLe5.s:43     .data.rel.local:0000000000000000 dl_core_module_entry
     /tmp/ccHbgLe5.s:75     .text:0000000000000000 get_module
     /tmp/ccHbgLe5.s:95     .text:000000000000000d dl_core_core

UNDEFINED SYMBOLS
_GLOBAL_OFFSET_TABLE_
zend_parse_parameters
__stack_chk_fail
zend_hash_internal_pointer_reset_ex
zend_hash_move_forward_ex
zend_hash_exists
zend_hash_find
_emalloc
convert_to_long
_zend_hash_add_or_update
printf
memset
memcpy
_efree
zend_hash_get_current_data_ex
